target datalayout = "e-m:e-p270:32:32-p271:32:32-p272:64:64-i64:64-i128:128-f80:128-n8:16:32:64-S128"
target triple = "x86_64-pc-linux-gnu"

%"class.cv::Mat" = type { i32, i32, i32, i32, ptr, ptr, ptr, ptr, ptr, ptr, %"struct.cv::MatSize", %"struct.cv::MatStep" }
%"struct.cv::MatSize" = type { ptr }
%"struct.cv::MatStep" = type { ptr, [2 x i64] }
%"class.cv::Mat_" = type { %"class.cv::Mat" }
%"struct.cv::Ptr" = type { %"class.std::shared_ptr" }
%"class.std::shared_ptr" = type { %"class.std::__shared_ptr" }
%"class.std::__shared_ptr" = type { ptr, %"class.std::__shared_count" }
%"class.std::__shared_count" = type { ptr }
%"class.cv::ConjGradSolverImpl" = type { %"class.cv::ConjGradSolver", %"struct.cv::Ptr", %"class.cv::TermCriteria", %"class.cv::Mat_", %"class.cv::Mat_", %"class.cv::Mat_", %"class.cv::Mat_", %"class.cv::Mat_", %"class.cv::Mat_" }
%"class.cv::ConjGradSolver" = type { %"class.cv::MinProblemSolver" }
%"class.cv::MinProblemSolver" = type { %"class.cv::Algorithm" }
%"class.cv::Algorithm" = type { ptr }
%"class.cv::TermCriteria" = type { i32, i32, double }

; Function Attrs: mustprogress nounwind uwtable
define hidden { i64, double } @_ZNK2cv18ConjGradSolverImpl15getTermCriteriaEv(ptr noundef nonnull align 8 dereferenceable(616) %0) unnamed_addr #0 align 2 {
  %2 = alloca %"class.cv::TermCriteria", align 8
  %3 = alloca ptr, align 8
  store ptr %0, ptr %3, align 8, !tbaa !50
  %4 = load ptr, ptr %3, align 8
  %5 = getelementptr inbounds nuw %"class.cv::ConjGradSolverImpl", ptr %4, i32 0, i32 2
  call void @llvm.memcpy.p0.p0.i64(ptr align 8 %2, ptr align 8 %5, i64 16, i1 false), !tbaa.struct !95
  %6 = load { i64, double }, ptr %2, align 8
  ret { i64, double } %6
}