; Function Attrs: mustprogress nofree norecurse nosync nounwind willreturn memory(argmem: read) uwtable
define hidden { i64, double } @_ZNK2cv18ConjGradSolverImpl15getTermCriteriaEv(ptr noundef nonnull readonly align 8 captures(none) dereferenceable(616) %0) unnamed_addr #10 align 2 {
  %2 = getelementptr inbounds nuw i8, ptr %0, i64 24
  %.sroa.0.0.copyload = load i64, ptr %2, align 8
  %.sroa.2.0..sroa_idx = getelementptr inbounds nuw i8, ptr %0, i64 32
  %.sroa.2.0.copyload = load double, ptr %.sroa.2.0..sroa_idx, align 8, !tbaa !13
  %.fca.0.insert = insertvalue { i64, double } poison, i64 %.sroa.0.0.copyload, 0
  %.fca.1.insert = insertvalue { i64, double } %.fca.0.insert, double %.sroa.2.0.copyload, 1
  ret { i64, double } %.fca.1.insert
}